CCS PCM C Compiler, Version 4.018, 12203               20-Þub-07 15:23

               Filename: D:\pic\zamanlayicilar\timer2\zamnalayici-2.lst

               ROM used: 108 words (5%)
                         Largest free fragment is 1940
               RAM used: 17 (8%) at main() level
                         17 (8%) worst case
               Stack:    1 worst case (0 in main + 1 for interrupts)

*
0000:  MOVLW  00
0001:  MOVWF  0A
0002:  GOTO   047
0003:  NOP
0004:  MOVWF  7F
0005:  SWAPF  03,W
0006:  CLRF   03
0007:  MOVWF  21
0008:  MOVF   7F,W
0009:  MOVWF  20
000A:  MOVF   0A,W
000B:  MOVWF  28
000C:  CLRF   0A
000D:  SWAPF  20,F
000E:  MOVF   04,W
000F:  MOVWF  22
0010:  MOVF   77,W
0011:  MOVWF  23
0012:  MOVF   78,W
0013:  MOVWF  24
0014:  MOVF   79,W
0015:  MOVWF  25
0016:  MOVF   7A,W
0017:  MOVWF  26
0018:  MOVF   7B,W
0019:  MOVWF  27
001A:  BCF    03.7
001B:  BCF    03.5
001C:  MOVLW  8C
001D:  MOVWF  04
001E:  BTFSS  00.1
001F:  GOTO   022
0020:  BTFSC  0C.1
0021:  GOTO   035
0022:  MOVF   22,W
0023:  MOVWF  04
0024:  MOVF   23,W
0025:  MOVWF  77
0026:  MOVF   24,W
0027:  MOVWF  78
0028:  MOVF   25,W
0029:  MOVWF  79
002A:  MOVF   26,W
002B:  MOVWF  7A
002C:  MOVF   27,W
002D:  MOVWF  7B
002E:  MOVF   28,W
002F:  MOVWF  0A
0030:  SWAPF  21,W
0031:  MOVWF  03
0032:  SWAPF  7F,F
0033:  SWAPF  7F,W
0034:  RETFIE
.................... //Zamanlayýcý-0 (TMR0) dahili kaynak ile uygulamasý 
.................... //20.02.2007 
.................... //yazan = Remzi ÞAHÝNOÐLU 
.................... // 
.................... //TMR2 zamanlayýcýsýný kullanarak 1 sn lik bekleme yapmak 
.................... // 
.................... #if defined (__PCM__) 
.................... #include <16F628A.h> 
.................... //////// Standard Header file for the PIC16F628A device //////////////// 
.................... #device PIC16F628A 
.................... #list 
....................  
.................... #use delay(clock=4000000) 
.................... #fuses NOWDT,PUT,NOLVP,NOBROWNOUT,MCLR,INTRC_IO,NOPROTECT 
.................... #endif 
....................  
.................... #byte OPTION = 0x81 
.................... #byte INTCON = 0x0B 
.................... #byte PIR1 = 0x0C 
.................... #byte PIE = 0x8C 
.................... #byte T2CON = 0x12 
....................  
.................... char i=0, a=0; 
*
004D:  CLRF   29
004E:  CLRF   2A
....................  
.................... #INT_TIMER2 
.................... void timer2() 
.................... {       
....................    bit_set(PIR1,1);          // TMR2 kesmesini tekrar kullanýlmasý için sýfýrlandý    
*
0035:  BSF    0C.1
....................                              // bu deger ön bölücü degeri ayarlandýgýnda 10ms denk gelir  
....................    i=i+1;                   
0036:  MOVLW  01
0037:  ADDWF  29,F
....................    if(i==100)                // bu döngüde 10ms 100 kere sayýlýp 1sn elde edilir 
0038:  MOVF   29,W
0039:  SUBLW  64
003A:  BTFSS  03.2
003B:  GOTO   044
....................    {       
....................       i=0;       
003C:  CLRF   29
....................       if(a==0)               // burada led 1 ise 0 yapýlýr, 0 ise 1 yapýlýr 
003D:  MOVF   2A,F
003E:  BTFSS  03.2
003F:  GOTO   043
....................       {a=1;} 
0040:  MOVLW  01
0041:  MOVWF  2A
....................       else 
0042:  GOTO   044
....................       {a=0;}                
0043:  CLRF   2A
....................    } 
.................... } 
....................  
0044:  BCF    0C.1
0045:  BCF    0A.3
0046:  GOTO   022
.................... void main() 
.................... {    
0047:  CLRF   04
0048:  BCF    03.7
0049:  MOVLW  1F
004A:  ANDWF  03,F
004B:  MOVLW  07
004C:  MOVWF  1F
....................    set_timer2(39);                       // 10ms saniyelik gecikme yapýmý 
*
004F:  MOVLW  27
0050:  MOVWF  11
....................    T2CON = 0b01111111;                   // son fre böl 1/16 
0051:  MOVLW  7F
0052:  MOVWF  12
....................    bit_set(PIE,1);                       // tmr2 kesmesine izin ver 
0053:  BSF    03.5
0054:  BSF    0C.1
....................    INTCON = 0xC0;                        // kesmelere izin ver 
0055:  MOVLW  C0
0056:  BCF    03.5
0057:  MOVWF  0B
....................        
.................... bas:    
....................    switch(a) 
....................    {    
0058:  MOVF   2A,W
0059:  BTFSC  03.2
005A:  GOTO   05F
005B:  XORLW  01
005C:  BTFSC  03.2
005D:  GOTO   064
005E:  GOTO   06A
....................    case 0: output_b(0); break; 
005F:  BSF    03.5
0060:  CLRF   06
0061:  BCF    03.5
0062:  CLRF   06
0063:  GOTO   06A
....................    case 1: output_b(1); break;     
0064:  BSF    03.5
0065:  CLRF   06
0066:  MOVLW  01
0067:  BCF    03.5
0068:  MOVWF  06
0069:  GOTO   06A
....................    } 
....................    goto bas; 
006A:  GOTO   058
.................... } 
006B:  SLEEP

Configuration Fuses:
   Word  1: 3F30   NOWDT PUT NOPROTECT NOBROWNOUT MCLR NOLVP INTRC_IO NOCPD
