CCS PCM C Compiler, Version 4.018, 12203               15-Þub-07 19:29

               Filename: D:\pic\karsilastiriciler\çift karsilastirma\karsilastirici-2.lst

               ROM used: 126 words (6%)
                         Largest free fragment is 1922
               RAM used: 15 (7%) at main() level
                         16 (7%) worst case
               Stack:    2 worst case (1 in main + 1 for interrupts)

*
0000:  MOVLW  00
0001:  MOVWF  0A
0002:  GOTO   059
0003:  NOP
0004:  MOVWF  7F
0005:  SWAPF  03,W
0006:  CLRF   03
0007:  MOVWF  21
0008:  MOVF   7F,W
0009:  MOVWF  20
000A:  MOVF   0A,W
000B:  MOVWF  28
000C:  CLRF   0A
000D:  SWAPF  20,F
000E:  MOVF   04,W
000F:  MOVWF  22
0010:  MOVF   77,W
0011:  MOVWF  23
0012:  MOVF   78,W
0013:  MOVWF  24
0014:  MOVF   79,W
0015:  MOVWF  25
0016:  MOVF   7A,W
0017:  MOVWF  26
0018:  MOVF   7B,W
0019:  MOVWF  27
001A:  BCF    03.7
001B:  BCF    03.5
001C:  MOVLW  8C
001D:  MOVWF  04
001E:  BTFSS  00.6
001F:  GOTO   022
0020:  BTFSC  0C.6
0021:  GOTO   035
0022:  MOVF   22,W
0023:  MOVWF  04
0024:  MOVF   23,W
0025:  MOVWF  77
0026:  MOVF   24,W
0027:  MOVWF  78
0028:  MOVF   25,W
0029:  MOVWF  79
002A:  MOVF   26,W
002B:  MOVWF  7A
002C:  MOVF   27,W
002D:  MOVWF  7B
002E:  MOVF   28,W
002F:  MOVWF  0A
0030:  SWAPF  21,W
0031:  MOVWF  03
0032:  SWAPF  7F,F
0033:  SWAPF  7F,W
0034:  RETFIE
.................... //Karþýlaþtýrýcý-1 (C1) uygulamasý 
.................... //15.02.2007 
.................... //yazan = Remzi ÞAHÝNOÐLU 
.................... #if defined (__PCM__) 
.................... #include <16F628A.h> 
.................... //////// Standard Header file for the PIC16F628A device //////////////// 
.................... #device PIC16F628A 
.................... #list 
....................  
.................... #use delay(clock=4000000) 
*
0044:  MOVLW  29
0045:  MOVWF  04
0046:  BCF    03.7
0047:  MOVF   00,W
0048:  BTFSC  03.2
0049:  GOTO   058
004A:  MOVLW  01
004B:  MOVWF  78
004C:  CLRF   77
004D:  DECFSZ 77,F
004E:  GOTO   04D
004F:  DECFSZ 78,F
0050:  GOTO   04C
0051:  MOVLW  4A
0052:  MOVWF  77
0053:  DECFSZ 77,F
0054:  GOTO   053
0055:  GOTO   056
0056:  DECFSZ 00,F
0057:  GOTO   04A
0058:  GOTO   07C (RETURN)
.................... #fuses NOWDT,PUT,NOLVP,NOBROWNOUT,MCLR,INTRC_IO,NOPROTECT 
.................... #endif 
....................  
.................... #byte CMCON = 0x1F 
....................  
.................... #INT_COMP                           // C2out 1 oldugunda program akýsý buradan devam eder    
.................... void comp_isr()  
.................... { 
....................    if(C1OUT) 
*
0035:  BTFSS  1F.6
0036:  GOTO   03B
....................    { 
....................       output_high(PIN_B1); 
0037:  BSF    03.5
0038:  BCF    06.1
0039:  BCF    03.5
003A:  BSF    06.1
....................    } 
....................    if(C2OUT) 
003B:  BTFSS  1F.7
003C:  GOTO   041
....................    { 
....................       output_high(PIN_B2); 
003D:  BSF    03.5
003E:  BCF    06.2
003F:  BCF    03.5
0040:  BSF    06.2
....................    } 
.................... } 
....................  
0041:  BCF    0C.6
0042:  BCF    0A.3
0043:  GOTO   022
.................... void main() 
.................... { 
*
0059:  CLRF   04
005A:  BCF    03.7
005B:  MOVLW  1F
005C:  ANDWF  03,F
005D:  MOVLW  07
005E:  MOVWF  1F
....................    setup_comparator(A0_A3_A1_A2);   // 100 nolu karsýlastýrýcý aktif edildi 
005F:  MOVLW  04
0060:  MOVWF  1F
0061:  BSF    03.5
0062:  MOVF   05,W
0063:  IORLW  0F
0064:  MOVWF  05
0065:  MOVLW  03
0066:  MOVWF  77
0067:  DECFSZ 77,F
0068:  GOTO   067
0069:  BCF    03.5
006A:  MOVF   1F,W
006B:  BCF    0C.6
....................    enable_interrupts(INT_COMP);     // karsýlastýrýcý kesmesi aktif  
006C:  BSF    03.5
006D:  BSF    0C.6
....................    enable_interrupts(GLOBAL);       // cevresel kesmeleraktif   
006E:  MOVLW  C0
006F:  BCF    03.5
0070:  IORWF  0B,F
....................     
....................    while(TRUE)                         
....................    { 
....................       output_low(PIN_B1); 
0071:  BSF    03.5
0072:  BCF    06.1
0073:  BCF    03.5
0074:  BCF    06.1
....................       output_low(PIN_B2); 
0075:  BSF    03.5
0076:  BCF    06.2
0077:  BCF    03.5
0078:  BCF    06.2
....................       delay_ms(100);                   
0079:  MOVLW  64
007A:  MOVWF  29
007B:  GOTO   044
....................    } 
007C:  GOTO   071
.................... } 
....................  
007D:  SLEEP

Configuration Fuses:
   Word  1: 3F30   NOWDT PUT NOPROTECT NOBROWNOUT MCLR NOLVP INTRC_IO NOCPD
