CCS PCM C Compiler, Version 4.018, 22639               12-Haz-07 22:28

               Filename: D:\pic\pic16f628a\interrupt (kesmeler)\RB0 harici kesmesi\kesme_RB0.lst

               ROM used: 176 words (9%)
                         Largest free fragment is 1872
               RAM used: 17 (8%) at main() level
                         19 (8%) worst case
               Stack:    3 worst case (1 in main + 2 for interrupts)

*
0000:  MOVLW  00
0001:  MOVWF  0A
0002:  GOTO   05A
0003:  NOP
0004:  MOVWF  7F
0005:  SWAPF  03,W
0006:  CLRF   03
0007:  MOVWF  21
0008:  MOVF   7F,W
0009:  MOVWF  20
000A:  MOVF   0A,W
000B:  MOVWF  28
000C:  CLRF   0A
000D:  SWAPF  20,F
000E:  MOVF   04,W
000F:  MOVWF  22
0010:  MOVF   77,W
0011:  MOVWF  23
0012:  MOVF   78,W
0013:  MOVWF  24
0014:  MOVF   79,W
0015:  MOVWF  25
0016:  MOVF   7A,W
0017:  MOVWF  26
0018:  MOVF   7B,W
0019:  MOVWF  27
001A:  BCF    03.7
001B:  BCF    03.5
001C:  BTFSS  0B.4
001D:  GOTO   020
001E:  BTFSC  0B.1
001F:  GOTO   048
0020:  MOVF   22,W
0021:  MOVWF  04
0022:  MOVF   23,W
0023:  MOVWF  77
0024:  MOVF   24,W
0025:  MOVWF  78
0026:  MOVF   25,W
0027:  MOVWF  79
0028:  MOVF   26,W
0029:  MOVWF  7A
002A:  MOVF   27,W
002B:  MOVWF  7B
002C:  MOVF   28,W
002D:  MOVWF  0A
002E:  SWAPF  21,W
002F:  MOVWF  03
0030:  SWAPF  7F,F
0031:  SWAPF  7F,W
0032:  RETFIE
.................... //RB0/INT harici kesme uygulamasý 
.................... //12.02.2007 
.................... //yazan = Remzi ÞAHÝNOÐLU 
.................... #if defined (__PCM__) 
.................... #include <16F628A.h> 
.................... //////// Standard Header file for the PIC16F628A device //////////////// 
.................... #device PIC16F628A 
.................... #list 
....................  
.................... #use delay(clock=4000000) 
0033:  MOVLW  2C
0034:  MOVWF  04
0035:  BCF    03.7
0036:  MOVF   00,W
0037:  BTFSC  03.2
0038:  GOTO   047
0039:  MOVLW  01
003A:  MOVWF  78
003B:  CLRF   77
003C:  DECFSZ 77,F
003D:  GOTO   03C
003E:  DECFSZ 78,F
003F:  GOTO   03B
0040:  MOVLW  4A
0041:  MOVWF  77
0042:  DECFSZ 77,F
0043:  GOTO   042
0044:  GOTO   045
0045:  DECFSZ 00,F
0046:  GOTO   039
0047:  RETLW  00
.................... #fuses NOWDT,PUT,NOLVP,NOBROWNOUT,MCLR,INTRC_IO,NOPROTECT 
.................... #endif 
....................  
.................... #byte STATUS = 0x03 
.................... #byte OPTION = 0x81 
.................... #byte INTCON = 0x0B 
....................  
.................... #INT_EXT                           // kesme geldiðinde program akýsý 
.................... void RB_isr()                      // buradan devam eder 
.................... {                      
.................... bas:      
....................    output_a(1);                    // 1 degeri a portuna gönderilir.      
0048:  BSF    03.5
0049:  CLRF   05
004A:  MOVLW  01
004B:  BCF    03.5
004C:  MOVWF  05
....................    bit_clear(INTCON,1);            // RB0/INT harici kesme bayraðý   
004D:  BCF    0B.1
....................    delay_ms(100);                  // tekrar kullanýlmak için sýfýrlanýr 
004E:  MOVLW  64
004F:  MOVWF  2C
0050:  CALL   033
....................                                    // butona basýlmak için beklenir  
....................    if(input(PIN_B0)==0)            // kesme sinyali var mý yok mu? 
0051:  BSF    03.5
0052:  BSF    06.0
0053:  BCF    03.5
0054:  BTFSC  06.0
0055:  GOTO   057
....................    {                                   
....................       goto bas;                    // var ise bas a dön iþlemkeri tekrar uygula  
0056:  GOTO   048
....................    }                               // yok ise kesmeyi bitir 
.................... }                                  // kaldýðýn yerden devam et   
....................  
0057:  BCF    0B.1
0058:  BCF    0A.3
0059:  GOTO   020
.................... void main() 
.................... {   
005A:  CLRF   04
005B:  BCF    03.7
005C:  MOVLW  1F
005D:  ANDWF  03,F
005E:  MOVLW  07
005F:  MOVWF  1F
....................    set_tris_b(1);                  // RB0/INT ucu giriþ yapýlýr 
0060:  MOVLW  01
0061:  TRIS   6
....................    enable_interrupts(INT_EXT);     // RB0 harici kesmesi aktif yapýlýr 
0062:  BSF    0B.4
....................    enable_interrupts(GLOBAL);      // kesmelere izin verilir 
0063:  MOVLW  C0
0064:  IORWF  0B,F
....................    bit_clear(OPTION,6);            // kesme düþen kenarda olussun 
0065:  BSF    03.5
0066:  BCF    01.6
....................                  
.................... tekrar:                            // pice ilk enerji verildiðinde  
....................    output_a(1);                    // 1-2-4-8 olarak 1 sn aralýkla       
0067:  CLRF   05
0068:  MOVLW  01
0069:  BCF    03.5
006A:  MOVWF  05
....................    delay_ms(1000);                 // saymaya baslar     
006B:  MOVLW  04
006C:  MOVWF  2A
006D:  CLRF   29
006E:  BTFSC  0B.7
006F:  BSF    29.7
0070:  BCF    0B.7
0071:  MOVLW  FA
0072:  MOVWF  2C
0073:  CALL   033
0074:  BTFSC  29.7
0075:  BSF    0B.7
0076:  DECFSZ 2A,F
0077:  GOTO   06D
....................    output_a(2);                    // bu deðerler portaya çýkýþ olarak verilir 
0078:  BSF    03.5
0079:  CLRF   05
007A:  MOVLW  02
007B:  BCF    03.5
007C:  MOVWF  05
....................    delay_ms(1000); 
007D:  MOVLW  04
007E:  MOVWF  2A
007F:  CLRF   29
0080:  BTFSC  0B.7
0081:  BSF    29.7
0082:  BCF    0B.7
0083:  MOVLW  FA
0084:  MOVWF  2C
0085:  CALL   033
0086:  BTFSC  29.7
0087:  BSF    0B.7
0088:  DECFSZ 2A,F
0089:  GOTO   07F
....................    output_a(4); 
008A:  BSF    03.5
008B:  CLRF   05
008C:  MOVLW  04
008D:  BCF    03.5
008E:  MOVWF  05
....................    delay_ms(1000); 
008F:  MOVWF  2A
0090:  CLRF   29
0091:  BTFSC  0B.7
0092:  BSF    29.7
0093:  BCF    0B.7
0094:  MOVLW  FA
0095:  MOVWF  2C
0096:  CALL   033
0097:  BTFSC  29.7
0098:  BSF    0B.7
0099:  DECFSZ 2A,F
009A:  GOTO   090
....................    output_a(8); 
009B:  BSF    03.5
009C:  CLRF   05
009D:  MOVLW  08
009E:  BCF    03.5
009F:  MOVWF  05
....................    delay_ms(1000); 
00A0:  MOVLW  04
00A1:  MOVWF  2A
00A2:  CLRF   29
00A3:  BTFSC  0B.7
00A4:  BSF    29.7
00A5:  BCF    0B.7
00A6:  MOVLW  FA
00A7:  MOVWF  2C
00A8:  CALL   033
00A9:  BTFSC  29.7
00AA:  BSF    0B.7
00AB:  DECFSZ 2A,F
00AC:  GOTO   0A2
....................    goto tekrar;    
00AD:  BSF    03.5
00AE:  GOTO   067
.................... } 
....................  
00AF:  SLEEP

Configuration Fuses:
   Word  1: 3F30   NOWDT PUT NOPROTECT NOBROWNOUT MCLR NOLVP INTRC_IO NOCPD
