CCS PCM C Compiler, Version 4.018, 12203               20-Þub-07 15:06

               Filename: D:\pic\zamanlayicilar\timer1\zamnalayici-1.lst

               ROM used: 114 words (6%)
                         Largest free fragment is 1934
               RAM used: 17 (8%) at main() level
                         17 (8%) worst case
               Stack:    1 worst case (0 in main + 1 for interrupts)

*
0000:  MOVLW  00
0001:  MOVWF  0A
0002:  GOTO   04B
0003:  NOP
0004:  MOVWF  7F
0005:  SWAPF  03,W
0006:  CLRF   03
0007:  MOVWF  21
0008:  MOVF   7F,W
0009:  MOVWF  20
000A:  MOVF   0A,W
000B:  MOVWF  28
000C:  CLRF   0A
000D:  SWAPF  20,F
000E:  MOVF   04,W
000F:  MOVWF  22
0010:  MOVF   77,W
0011:  MOVWF  23
0012:  MOVF   78,W
0013:  MOVWF  24
0014:  MOVF   79,W
0015:  MOVWF  25
0016:  MOVF   7A,W
0017:  MOVWF  26
0018:  MOVF   7B,W
0019:  MOVWF  27
001A:  BCF    03.7
001B:  BCF    03.5
001C:  MOVLW  8C
001D:  MOVWF  04
001E:  BTFSS  00.0
001F:  GOTO   022
0020:  BTFSC  0C.0
0021:  GOTO   035
0022:  MOVF   22,W
0023:  MOVWF  04
0024:  MOVF   23,W
0025:  MOVWF  77
0026:  MOVF   24,W
0027:  MOVWF  78
0028:  MOVF   25,W
0029:  MOVWF  79
002A:  MOVF   26,W
002B:  MOVWF  7A
002C:  MOVF   27,W
002D:  MOVWF  7B
002E:  MOVF   28,W
002F:  MOVWF  0A
0030:  SWAPF  21,W
0031:  MOVWF  03
0032:  SWAPF  7F,F
0033:  SWAPF  7F,W
0034:  RETFIE
.................... //Zamanlayýcý-1 (TMR0) dahili kaynak ile uygulamasý 
.................... //20.02.2007 
.................... //yazan = Remzi ÞAHÝNOÐLU 
.................... // 
.................... //TMR1 zamanlayýcýsýný kullanarak 1 sn lik bekleme yapmak 
.................... // 
.................... #if defined (__PCM__) 
.................... #include <16F628A.h> 
.................... //////// Standard Header file for the PIC16F628A device //////////////// 
.................... #device PIC16F628A 
.................... #list 
....................  
.................... #use delay(clock=4000000) 
.................... #fuses NOWDT,PUT,NOLVP,NOBROWNOUT,MCLR,INTRC_IO,NOPROTECT 
.................... #endif 
....................  
.................... #byte OPTION = 0x81 
.................... #byte INTCON = 0x0B 
.................... #byte PIR1 = 0x0C 
....................  
.................... char i=0, a=0; 
*
0051:  CLRF   29
0052:  CLRF   2A
....................  
.................... #INT_TIMER1 
.................... void timer1() 
.................... {       
....................    bit_clear(PIR1,0);        // TMR1 kesmesini tekrar kullanýlmasý için sýfýrlandý 
*
0035:  BCF    0C.0
....................    set_timer1(55536);        // TMRO saklayýcýsýna 217 degeri yüklendi 
0036:  MOVLW  D8
0037:  MOVWF  0F
0038:  MOVLW  F0
0039:  MOVWF  0E
....................                              // bu deger ön bölücü degeri ayarlandýgýnda 10ms denk gelir  
....................    i=i+1;                   
003A:  MOVLW  01
003B:  ADDWF  29,F
....................    if(i==100)                // bu döngüde 10ms 100 kere sayýlýp 1sn elde edilir. 
003C:  MOVF   29,W
003D:  SUBLW  64
003E:  BTFSS  03.2
003F:  GOTO   048
....................    {       
....................       i=0;       
0040:  CLRF   29
....................       if(a==0)               // burada led 1 ise 0 yapýlýr, 0 ise 1 yapýlýr 
0041:  MOVF   2A,F
0042:  BTFSS  03.2
0043:  GOTO   047
....................       {a=1;} 
0044:  MOVLW  01
0045:  MOVWF  2A
....................       else 
0046:  GOTO   048
....................       {a=0;}                
0047:  CLRF   2A
....................    } 
.................... } 
....................  
0048:  BCF    0C.0
0049:  BCF    0A.3
004A:  GOTO   022
.................... void main() 
.................... {    
004B:  CLRF   04
004C:  BCF    03.7
004D:  MOVLW  1F
004E:  ANDWF  03,F
004F:  MOVLW  07
0050:  MOVWF  1F
....................    set_timer1(55536);                               // 10ms saniyelik gecikme yapýmý 
*
0053:  MOVLW  D8
0054:  MOVWF  0F
0055:  MOVLW  F0
0056:  MOVWF  0E
....................    setup_timer_1 ( T1_INTERNAL | T1_DIV_BY_1 );     // dahili osilatör ve ön bölücü degeri 1:1 
0057:  MOVLW  85
0058:  MOVWF  10
....................    enable_interrupts(INT_TIMER1);                   // tmr0 kesmesine izin ver 
0059:  BSF    03.5
005A:  BSF    0C.0
....................    enable_interrupts(GLOBAL);                       // kesmelere izin ver 
005B:  MOVLW  C0
005C:  BCF    03.5
005D:  IORWF  0B,F
....................     
.................... bas:    
....................    switch(a) 
....................    {    
005E:  MOVF   2A,W
005F:  BTFSC  03.2
0060:  GOTO   065
0061:  XORLW  01
0062:  BTFSC  03.2
0063:  GOTO   06A
0064:  GOTO   070
....................    case 0: output_b(0); break; 
0065:  BSF    03.5
0066:  CLRF   06
0067:  BCF    03.5
0068:  CLRF   06
0069:  GOTO   070
....................    case 1: output_b(1); break;     
006A:  BSF    03.5
006B:  CLRF   06
006C:  MOVLW  01
006D:  BCF    03.5
006E:  MOVWF  06
006F:  GOTO   070
....................    } 
....................    goto bas; 
0070:  GOTO   05E
.................... } 
0071:  SLEEP

Configuration Fuses:
   Word  1: 3F30   NOWDT PUT NOPROTECT NOBROWNOUT MCLR NOLVP INTRC_IO NOCPD
